; Function Attrs: mustprogress nounwind uwtable
define hidden void @_ZN15ZPhysicalMemory12add_segmentsERKS_(ptr noundef nonnull align 8 dereferenceable(16) %0, ptr nocapture noundef nonnull readonly align 8 dereferenceable(16) %1) local_unnamed_addr #1 align 2 {
  %3 = load i32, ptr %1, align 8
  %4 = icmp sgt i32 %3, 0
  br i1 %4, label %.lr.ph, label %._crit_edge

.lr.ph:                                           ; preds = %2
  %5 = getelementptr inbounds i8, ptr %1, i64 8
  br label %6

6:                                                ; preds = %.lr.ph, %6
  %indvars.iv = phi i64 [ 0, %.lr.ph ], [ %indvars.iv.next, %6 ]
  %7 = load ptr, ptr %5, align 8
  %8 = getelementptr inbounds %class.ZPhysicalMemorySegment, ptr %7, i64 %indvars.iv
  tail call void @_ZN15ZPhysicalMemory11add_segmentERK22ZPhysicalMemorySegment(ptr noundef nonnull align 8 dereferenceable(16) %0, ptr noundef nonnull align 8 dereferenceable(17) %8)
  %indvars.iv.next = add nuw nsw i64 %indvars.iv, 1
  %9 = load i32, ptr %1, align 8
  %10 = sext i32 %9 to i64
  %11 = icmp slt i64 %indvars.iv.next, %10
  br i1 %11, label %6, label %._crit_edge, !llvm.loop !9

._crit_edge:                                      ; preds = %6, %2
  ret void
}